; Function Attrs: mustprogress uwtable
define hidden noundef zeroext i1 @_ZN12quasi_macrosclER10ref_vectorI4expr11ast_managerERS0_I3appS2_ERS0_IN18dependency_managerINS2_22expr_dependency_configEE10dependencyES2_E(ptr noundef nonnull align 8 dereferenceable(560) %0, ptr noundef nonnull readonly align 8 captures(none) dereferenceable(16) %1, ptr noundef nonnull readonly align 8 captures(none) dereferenceable(16) %2, ptr noundef nonnull readonly align 8 captures(none) dereferenceable(16) %3) local_unnamed_addr #3 align 2 {
  %5 = getelementptr inbounds nuw i8, ptr %1, i64 8
  %6 = load ptr, ptr %5, align 8, !tbaa !26
  %7 = icmp eq ptr %6, null
  br i1 %7, label %_ZNK15ref_vector_coreI4expr19ref_manager_wrapperIS0_11ast_managerEE4sizeEv.exit, label %8

8:                                                ; preds = %4
  %9 = getelementptr inbounds i8, ptr %6, i64 -4
  %10 = load i32, ptr %9, align 4, !tbaa !36
  br label %_ZNK15ref_vector_coreI4expr19ref_manager_wrapperIS0_11ast_managerEE4sizeEv.exit

_ZNK15ref_vector_coreI4expr19ref_manager_wrapperIS0_11ast_managerEE4sizeEv.exit: ; preds = %4, %8
  %.0.i.i = phi i32 [ %10, %8 ], [ 0, %4 ]
  %11 = tail call noundef zeroext i1 @_ZN12quasi_macros11find_macrosEjPKP4expr(ptr noundef nonnull align 8 dereferenceable(560) %0, i32 noundef %.0.i.i, ptr noundef %6)
  br i1 %11, label %12, label %13

12:                                               ; preds = %_ZNK15ref_vector_coreI4expr19ref_manager_wrapperIS0_11ast_managerEE4sizeEv.exit
  tail call void @_ZN12quasi_macros12apply_macrosER10ref_vectorI4expr11ast_managerERS0_I3appS2_ERS0_IN18dependency_managerINS2_22expr_dependency_configEE10dependencyES2_E(ptr noundef nonnull align 8 dereferenceable(560) %0, ptr noundef nonnull align 8 dereferenceable(16) %1, ptr noundef nonnull align 8 dereferenceable(16) %2, ptr noundef nonnull align 8 dereferenceable(16) %3)
  br label %13

13:                                               ; preds = %_ZNK15ref_vector_coreI4expr19ref_manager_wrapperIS0_11ast_managerEE4sizeEv.exit, %12
  ret i1 %11
}